target datalayout = "e-m:e-p270:32:32-p271:32:32-p272:64:64-i64:64-i128:128-f80:128-n8:16:32:64-S128"
target triple = "x86_64-pc-linux-gnu"

@.str.14 = private unnamed_addr constant [34 x i8] c"../openssl/test/x509_acert_test.c\00", align 1
@.str.20 = private unnamed_addr constant [36 x i8] c"acert_file = test_get_argument(idx)\00", align 1
@.str.21 = private unnamed_addr constant [35 x i8] c"bp = BIO_new_file(acert_file, \22r\22)\00", align 1
@.str.22 = private unnamed_addr constant [2 x i8] c"r\00", align 1
@.str.23 = private unnamed_addr constant [39 x i8] c"bout = BIO_new_fp(stderr, BIO_NOCLOSE)\00", align 1
@stderr = external global ptr, align 8
@.str.24 = private unnamed_addr constant [54 x i8] c"acert = PEM_read_bio_X509_ACERT(bp, NULL, NULL, NULL)\00", align 1
@.str.25 = private unnamed_addr constant [30 x i8] c"X509_ACERT_print(bout, acert)\00", align 1
@.str.26 = private unnamed_addr constant [2 x i8] c"1\00", align 1

; Function Attrs: nounwind uwtable
define internal i32 @test_print_acert(i32 noundef %0) #0 {
  %2 = alloca i32, align 4
  %3 = alloca i32, align 4
  %4 = alloca i32, align 4
  %5 = alloca ptr, align 8
  %6 = alloca ptr, align 8
  %7 = alloca ptr, align 8
  %8 = alloca ptr, align 8
  %9 = alloca i32, align 4
  store i32 %0, ptr %3, align 4, !tbaa !4
  call void @llvm.lifetime.start.p0(i64 4, ptr %4) #3
  store i32 0, ptr %4, align 4, !tbaa !4
  call void @llvm.lifetime.start.p0(i64 8, ptr %5) #3
  call void @llvm.lifetime.start.p0(i64 8, ptr %6) #3
  store ptr null, ptr %6, align 8, !tbaa !8
  call void @llvm.lifetime.start.p0(i64 8, ptr %7) #3
  call void @llvm.lifetime.start.p0(i64 8, ptr %8) #3
  %10 = load i32, ptr %3, align 4, !tbaa !4
  %11 = sext i32 %10 to i64
  %12 = call ptr @test_get_argument(i64 noundef %11)
  store ptr %12, ptr %5, align 8, !tbaa !11
  %13 = call i32 @test_ptr(ptr noundef @.str.14, i32 noundef 23, ptr noundef @.str.20, ptr noundef %12)
  %14 = icmp ne i32 %13, 0
  br i1 %14, label %16, label %15

15:                                               ; preds = %1
  store i32 0, ptr %2, align 4
  store i32 1, ptr %9, align 4
  br label %49

16:                                               ; preds = %1
  %17 = load ptr, ptr %5, align 8, !tbaa !11
  %18 = call ptr @BIO_new_file(ptr noundef %17, ptr noundef @.str.22)
  store ptr %18, ptr %7, align 8, !tbaa !13
  %19 = call i32 @test_ptr(ptr noundef @.str.14, i32 noundef 26, ptr noundef @.str.21, ptr noundef %18)
  %20 = icmp ne i32 %19, 0
  br i1 %20, label %22, label %21

21:                                               ; preds = %16
  store i32 0, ptr %2, align 4
  store i32 1, ptr %9, align 4
  br label %49

22:                                               ; preds = %16
  %23 = load ptr, ptr @stderr, align 8, !tbaa !15
  %24 = call ptr @BIO_new_fp(ptr noundef %23, i32 noundef 0)
  store ptr %24, ptr %8, align 8, !tbaa !13
  %25 = call i32 @test_ptr(ptr noundef @.str.14, i32 noundef 29, ptr noundef @.str.23, ptr noundef %24)
  %26 = icmp ne i32 %25, 0
  br i1 %26, label %28, label %27

27:                                               ; preds = %22
  br label %42

28:                                               ; preds = %22
  %29 = load ptr, ptr %7, align 8, !tbaa !13
  %30 = call ptr @PEM_read_bio_X509_ACERT(ptr noundef %29, ptr noundef null, ptr noundef null, ptr noundef null)
  store ptr %30, ptr %6, align 8, !tbaa !8
  %31 = call i32 @test_ptr(ptr noundef @.str.14, i32 noundef 32, ptr noundef @.str.24, ptr noundef %30)
  %32 = icmp ne i32 %31, 0
  br i1 %32, label %34, label %33

33:                                               ; preds = %28
  br label %42

34:                                               ; preds = %28
  %35 = load ptr, ptr %8, align 8, !tbaa !13
  %36 = load ptr, ptr %6, align 8, !tbaa !8
  %37 = call i32 @X509_ACERT_print(ptr noundef %35, ptr noundef %36)
  %38 = call i32 @test_int_eq(ptr noundef @.str.14, i32 noundef 35, ptr noundef @.str.25, ptr noundef @.str.26, i32 noundef %37, i32 noundef 1)
  %39 = icmp ne i32 %38, 0
  br i1 %39, label %41, label %40

40:                                               ; preds = %34
  br label %42

41:                                               ; preds = %34
  store i32 1, ptr %4, align 4, !tbaa !4
  br label %42

42:                                               ; preds = %41, %40, %33, %27
  %43 = load ptr, ptr %7, align 8, !tbaa !13
  %44 = call i32 @BIO_free(ptr noundef %43)
  %45 = load ptr, ptr %8, align 8, !tbaa !13
  %46 = call i32 @BIO_free(ptr noundef %45)
  %47 = load ptr, ptr %6, align 8, !tbaa !8
  call void @X509_ACERT_free(ptr noundef %47)
  %48 = load i32, ptr %4, align 4, !tbaa !4
  store i32 %48, ptr %2, align 4
  store i32 1, ptr %9, align 4
  br label %49

49:                                               ; preds = %42, %21, %15
  call void @llvm.lifetime.end.p0(i64 8, ptr %8) #3
  call void @llvm.lifetime.end.p0(i64 8, ptr %7) #3
  call void @llvm.lifetime.end.p0(i64 8, ptr %6) #3
  call void @llvm.lifetime.end.p0(i64 8, ptr %5) #3
  call void @llvm.lifetime.end.p0(i64 4, ptr %4) #3
  %50 = load i32, ptr %2, align 4
  ret i32 %50
}