; Function Attrs: nounwind uwtable
define internal range(i32 0, 2) i32 @test_print_acert(i32 noundef %0) #1 {
  %2 = sext i32 %0 to i64
  %3 = tail call ptr @test_get_argument(i64 noundef %2) #4
  %4 = tail call i32 @test_ptr(ptr noundef nonnull @.str.14, i32 noundef 23, ptr noundef nonnull @.str.20, ptr noundef %3) #4
  %.not = icmp eq i32 %4, 0
  br i1 %.not, label %21, label %5

5:                                                ; preds = %1
  %6 = tail call ptr @BIO_new_file(ptr noundef %3, ptr noundef nonnull @.str.22) #4
  %7 = tail call i32 @test_ptr(ptr noundef nonnull @.str.14, i32 noundef 26, ptr noundef nonnull @.str.21, ptr noundef %6) #4
  %.not11 = icmp eq i32 %7, 0
  br i1 %.not11, label %21, label %8

8:                                                ; preds = %5
  %9 = load ptr, ptr @stderr, align 8, !tbaa !4
  %10 = tail call ptr @BIO_new_fp(ptr noundef %9, i32 noundef 0) #4
  %11 = tail call i32 @test_ptr(ptr noundef nonnull @.str.14, i32 noundef 29, ptr noundef nonnull @.str.23, ptr noundef %10) #4
  %.not12 = icmp eq i32 %11, 0
  br i1 %.not12, label %18, label %12

12:                                               ; preds = %8
  %13 = tail call ptr @PEM_read_bio_X509_ACERT(ptr noundef %6, ptr noundef null, ptr noundef null, ptr noundef null) #4
  %14 = tail call i32 @test_ptr(ptr noundef nonnull @.str.14, i32 noundef 32, ptr noundef nonnull @.str.24, ptr noundef %13) #4
  %.not13 = icmp eq i32 %14, 0
  br i1 %.not13, label %18, label %15

15:                                               ; preds = %12
  %16 = tail call i32 @X509_ACERT_print(ptr noundef %10, ptr noundef %13) #4
  %17 = tail call i32 @test_int_eq(ptr noundef nonnull @.str.14, i32 noundef 35, ptr noundef nonnull @.str.25, ptr noundef nonnull @.str.26, i32 noundef %16, i32 noundef 1) #4
  %.not14 = icmp ne i32 %17, 0
  %spec.select = zext i1 %.not14 to i32
  br label %18

18:                                               ; preds = %15, %12, %8
  %.010 = phi ptr [ %13, %12 ], [ null, %8 ], [ %13, %15 ]
  %.09 = phi i32 [ 0, %12 ], [ 0, %8 ], [ %spec.select, %15 ]
  %19 = tail call i32 @BIO_free(ptr noundef %6) #4
  %20 = tail call i32 @BIO_free(ptr noundef %10) #4
  tail call void @X509_ACERT_free(ptr noundef %.010) #4
  br label %21

21:                                               ; preds = %5, %1, %18
  %.0 = phi i32 [ %.09, %18 ], [ 0, %1 ], [ 0, %5 ]
  ret i32 %.0
}